
main.o:     file format elf32-littlearm


Disassembly of section .text:

00000000 <NMI_Handler>:
   0:	b480      	push	{r7}
   2:	af00      	add	r7, sp, #0
   4:	bf00      	nop
   6:	46bd      	mov	sp, r7
   8:	bc80      	pop	{r7}
   a:	4770      	bx	lr

0000000c <Bus_Fault>:
   c:	b480      	push	{r7}
   e:	af00      	add	r7, sp, #0
  10:	bf00      	nop
  12:	46bd      	mov	sp, r7
  14:	bc80      	pop	{r7}
  16:	4770      	bx	lr

00000018 <main>:
  18:	b580      	push	{r7, lr}
  1a:	af00      	add	r7, sp, #0
  1c:	4b0d      	ldr	r3, [pc, #52]	; (54 <main+0x3c>)
  1e:	681b      	ldr	r3, [r3, #0]
  20:	4a0c      	ldr	r2, [pc, #48]	; (54 <main+0x3c>)
  22:	f043 0304 	orr.w	r3, r3, #4
  26:	6013      	str	r3, [r2, #0]
  28:	4b0b      	ldr	r3, [pc, #44]	; (58 <main+0x40>)
  2a:	681b      	ldr	r3, [r3, #0]
  2c:	4a0a      	ldr	r2, [pc, #40]	; (58 <main+0x40>)
  2e:	f423 0370 	bic.w	r3, r3, #15728640	; 0xf00000
  32:	6013      	str	r3, [r2, #0]
  34:	4b09      	ldr	r3, [pc, #36]	; (5c <main+0x44>)
  36:	681b      	ldr	r3, [r3, #0]
  38:	4a08      	ldr	r2, [pc, #32]	; (5c <main+0x44>)
  3a:	f443 1300 	orr.w	r3, r3, #2097152	; 0x200000
  3e:	6013      	str	r3, [r2, #0]
  40:	f7ff fffe 	bl	60 <ledON>
  44:	f7ff fffe 	bl	98 <delay>
  48:	f7ff fffe 	bl	7c <ledOFF>
  4c:	f7ff fffe 	bl	98 <delay>
  50:	e7f6      	b.n	40 <main+0x28>
  52:	bf00      	nop
  54:	40021018 	andmi	r1, r2, r8, lsl r0
  58:	40010804 	andmi	r0, r1, r4, lsl #16
  5c:	4001080c 	andmi	r0, r1, ip, lsl #16

00000060 <ledON>:
  60:	b480      	push	{r7}
  62:	af00      	add	r7, sp, #0
  64:	4b04      	ldr	r3, [pc, #16]	; (78 <ledON+0x18>)
  66:	681a      	ldr	r2, [r3, #0]
  68:	8813      	ldrh	r3, [r2, #0]
  6a:	f443 5300 	orr.w	r3, r3, #8192	; 0x2000
  6e:	8013      	strh	r3, [r2, #0]
  70:	bf00      	nop
  72:	46bd      	mov	sp, r7
  74:	bc80      	pop	{r7}
  76:	4770      	bx	lr
  78:	00000000 	andeq	r0, r0, r0

0000007c <ledOFF>:
  7c:	b480      	push	{r7}
  7e:	af00      	add	r7, sp, #0
  80:	4b04      	ldr	r3, [pc, #16]	; (94 <ledOFF+0x18>)
  82:	681a      	ldr	r2, [r3, #0]
  84:	8813      	ldrh	r3, [r2, #0]
  86:	f36f 334d 	bfc	r3, #13, #1
  8a:	8013      	strh	r3, [r2, #0]
  8c:	bf00      	nop
  8e:	46bd      	mov	sp, r7
  90:	bc80      	pop	{r7}
  92:	4770      	bx	lr
  94:	00000000 	andeq	r0, r0, r0

00000098 <delay>:
  98:	b480      	push	{r7}
  9a:	b083      	sub	sp, #12
  9c:	af00      	add	r7, sp, #0
  9e:	2300      	movs	r3, #0
  a0:	607b      	str	r3, [r7, #4]
  a2:	e002      	b.n	aa <delay+0x12>
  a4:	687b      	ldr	r3, [r7, #4]
  a6:	3301      	adds	r3, #1
  a8:	607b      	str	r3, [r7, #4]
  aa:	687b      	ldr	r3, [r7, #4]
  ac:	f241 3287 	movw	r2, #4999	; 0x1387
  b0:	4293      	cmp	r3, r2
  b2:	ddf7      	ble.n	a4 <delay+0xc>
  b4:	bf00      	nop
  b6:	bf00      	nop
  b8:	370c      	adds	r7, #12
  ba:	46bd      	mov	sp, r7
  bc:	bc80      	pop	{r7}
  be:	4770      	bx	lr
